target datalayout = "e-m:e-p270:32:32-p271:32:32-p272:64:64-i64:64-i128:128-f80:128-n8:16:32:64-S128"
target triple = "x86_64-pc-linux-gnu"

@BAD_FILE_MSG = internal global ptr @.str.10, align 8
@BAD_MAGIC_MSG = internal global ptr @.str.11, align 8

; Function Attrs: nounwind uwtable
define hidden ptr @isJar(ptr noundef %0) #0 {
  %2 = alloca ptr, align 8
  %3 = alloca ptr, align 8
  %4 = alloca i32, align 4
  %5 = alloca ptr, align 8
  %6 = alloca i64, align 8
  %7 = alloca i64, align 8
  %8 = alloca i64, align 8
  %9 = alloca i64, align 8
  %10 = alloca i64, align 8
  %11 = alloca i64, align 8
  %12 = alloca i64, align 8
  store ptr %0, ptr %2, align 8
  %13 = load ptr, ptr @BAD_FILE_MSG, align 8
  store ptr %13, ptr %3, align 8
  %14 = load ptr, ptr %2, align 8
  %15 = call i32 (ptr, i32, ...) @open64(ptr noundef %14, i32 noundef 0)
  store i32 %15, ptr %4, align 4
  %16 = load i32, ptr %4, align 4
  %17 = icmp ne i32 %16, -1
  br i1 %17, label %18, label %132

18:                                               ; preds = %1
  %19 = call ptr @llvm.stacksave.p0()
  store ptr %19, ptr %5, align 8
  %20 = alloca i8, i64 65535, align 16
  %21 = load i32, ptr %4, align 4
  %22 = call i64 @read(i32 noundef %21, ptr noundef %20, i64 noundef 65535)
  store i64 %22, ptr %6, align 8
  %23 = load i64, ptr %6, align 8
  %24 = icmp sge i64 %23, 35
  br i1 %24, label %25, label %123

25:                                               ; preds = %18
  %26 = load ptr, ptr @BAD_MAGIC_MSG, align 8
  store ptr %26, ptr %3, align 8
  %27 = getelementptr inbounds i8, ptr %20, i64 0
  %28 = load i8, ptr %27, align 16
  %29 = zext i8 %28 to i32
  %30 = icmp eq i32 %29, 80
  %31 = zext i1 %30 to i32
  %32 = getelementptr inbounds i8, ptr %20, i64 1
  %33 = load i8, ptr %32, align 1
  %34 = zext i8 %33 to i32
  %35 = icmp eq i32 %34, 75
  %36 = zext i1 %35 to i32
  %37 = and i32 %31, %36
  %38 = getelementptr inbounds i8, ptr %20, i64 2
  %39 = load i8, ptr %38, align 2
  %40 = zext i8 %39 to i32
  %41 = icmp eq i32 %40, 3
  %42 = zext i1 %41 to i32
  %43 = and i32 %37, %42
  %44 = getelementptr inbounds i8, ptr %20, i64 3
  %45 = load i8, ptr %44, align 1
  %46 = zext i8 %45 to i32
  %47 = icmp eq i32 %46, 4
  %48 = zext i1 %47 to i32
  %49 = and i32 %43, %48
  %50 = icmp ne i32 %49, 0
  br i1 %50, label %51, label %122

51:                                               ; preds = %25
  %52 = getelementptr inbounds i8, ptr %20, i64 26
  %53 = load i8, ptr %52, align 2
  %54 = zext i8 %53 to i32
  %55 = getelementptr inbounds i8, ptr %20, i64 27
  %56 = load i8, ptr %55, align 1
  %57 = zext i8 %56 to i32
  %58 = shl i32 %57, 8
  %59 = or i32 %54, %58
  %60 = sext i32 %59 to i64
  store i64 %60, ptr %7, align 8
  %61 = getelementptr inbounds i8, ptr %20, i64 28
  %62 = load i8, ptr %61, align 4
  %63 = zext i8 %62 to i32
  %64 = getelementptr inbounds i8, ptr %20, i64 29
  %65 = load i8, ptr %64, align 1
  %66 = zext i8 %65 to i32
  %67 = shl i32 %66, 8
  %68 = or i32 %63, %67
  %69 = sext i32 %68 to i64
  store i64 %69, ptr %8, align 8
  %70 = load i64, ptr %7, align 8
  %71 = add nsw i64 30, %70
  store i64 %71, ptr %9, align 8
  %72 = load i64, ptr %9, align 8
  %73 = load i64, ptr %8, align 8
  %74 = add nsw i64 %72, %73
  store i64 %74, ptr %10, align 8
  %75 = load i64, ptr %10, align 8
  %76 = load i64, ptr %6, align 8
  %77 = icmp sle i64 %75, %76
  br i1 %77, label %78, label %121

78:                                               ; preds = %51
  %79 = load i64, ptr %10, align 8
  %80 = sub nsw i64 %79, 4
  store i64 %80, ptr %10, align 8
  br label %81

81:                                               ; preds = %119, %78
  %82 = load i64, ptr %9, align 8
  %83 = load i64, ptr %10, align 8
  %84 = icmp sle i64 %82, %83
  br i1 %84, label %85, label %120

85:                                               ; preds = %81
  %86 = load i64, ptr %9, align 8
  %87 = getelementptr inbounds i8, ptr %20, i64 %86
  %88 = load i8, ptr %87, align 1
  %89 = zext i8 %88 to i32
  %90 = load i64, ptr %9, align 8
  %91 = add nsw i64 %90, 1
  %92 = getelementptr inbounds i8, ptr %20, i64 %91
  %93 = load i8, ptr %92, align 1
  %94 = zext i8 %93 to i32
  %95 = shl i32 %94, 8
  %96 = or i32 %89, %95
  %97 = sext i32 %96 to i64
  store i64 %97, ptr %11, align 8
  %98 = load i64, ptr %9, align 8
  %99 = add nsw i64 %98, 2
  %100 = getelementptr inbounds i8, ptr %20, i64 %99
  %101 = load i8, ptr %100, align 1
  %102 = zext i8 %101 to i32
  %103 = load i64, ptr %9, align 8
  %104 = add nsw i64 %103, 2
  %105 = add nsw i64 %104, 1
  %106 = getelementptr inbounds i8, ptr %20, i64 %105
  %107 = load i8, ptr %106, align 1
  %108 = zext i8 %107 to i32
  %109 = shl i32 %108, 8
  %110 = or i32 %102, %109
  %111 = sext i32 %110 to i64
  store i64 %111, ptr %12, align 8
  %112 = load i64, ptr %12, align 8
  %113 = add nsw i64 4, %112
  %114 = load i64, ptr %9, align 8
  %115 = add nsw i64 %114, %113
  store i64 %115, ptr %9, align 8
  %116 = load i64, ptr %11, align 8
  %117 = icmp eq i64 %116, 51966
  br i1 %117, label %118, label %119

118:                                              ; preds = %85
  store ptr null, ptr %3, align 8
  br label %120

119:                                              ; preds = %85
  br label %81, !llvm.loop !9

120:                                              ; preds = %118, %81
  br label %121

121:                                              ; preds = %120, %51
  br label %122

122:                                              ; preds = %121, %25
  br label %123

123:                                              ; preds = %122, %18
  %124 = load ptr, ptr %3, align 8
  %125 = icmp ne ptr %124, null
  br i1 %125, label %126, label %128

126:                                              ; preds = %123
  %127 = call ptr @__errno_location() #8
  store i32 8, ptr %127, align 4
  br label %128

128:                                              ; preds = %126, %123
  %129 = load i32, ptr %4, align 4
  %130 = call i32 @close(i32 noundef %129)
  %131 = load ptr, ptr %5, align 8
  call void @llvm.stackrestore.p0(ptr %131)
  br label %132

132:                                              ; preds = %128, %1
  %133 = load ptr, ptr %3, align 8
  ret ptr %133
}