; Function Attrs: nounwind uwtable
define hidden noundef ptr @isJar(ptr nocapture noundef readonly %0) local_unnamed_addr #5 {
  %2 = tail call i32 (ptr, i32, ...) @open64(ptr noundef %0, i32 noundef 0) #17
  %.not = icmp eq i32 %2, -1
  br i1 %.not, label %34, label %3

3:                                                ; preds = %1
  %4 = tail call ptr @llvm.stacksave.p0()
  %5 = alloca [65535 x i8], align 16
  %6 = call i64 @read(i32 noundef %2, ptr noundef nonnull %5, i64 noundef 65535) #17
  %7 = icmp sgt i64 %6, 34
  br i1 %7, label %8, label %.loopexit

8:                                                ; preds = %3
  %9 = load i32, ptr %5, align 16
  %10 = icmp eq i32 %9, 67324752
  br i1 %10, label %11, label %.loopexit

11:                                               ; preds = %8
  %12 = getelementptr inbounds i8, ptr %5, i64 26
  %13 = load i16, ptr %12, align 2
  %14 = zext i16 %13 to i64
  %15 = getelementptr inbounds i8, ptr %5, i64 28
  %16 = load i16, ptr %15, align 4
  %17 = zext i16 %16 to i64
  %18 = add nuw nsw i64 %14, 30
  %19 = add nuw nsw i64 %18, %17
  %.not26 = icmp ugt i64 %19, %6
  br i1 %.not26, label %.loopexit, label %20

20:                                               ; preds = %11
  %21 = add nsw i64 %19, -4
  br label %22

22:                                               ; preds = %23, %20
  %.022 = phi i64 [ %18, %20 ], [ %30, %23 ]
  %.not27 = icmp sgt i64 %.022, %21
  br i1 %.not27, label %.loopexit, label %23

23:                                               ; preds = %22
  %24 = getelementptr inbounds i8, ptr %5, i64 %.022
  %25 = load i16, ptr %24, align 1
  %26 = getelementptr inbounds i8, ptr %24, i64 2
  %27 = load i16, ptr %26, align 1
  %28 = zext i16 %27 to i64
  %29 = add nuw nsw i64 %.022, 4
  %30 = add nuw nsw i64 %29, %28
  %31 = icmp eq i16 %25, -13570
  br i1 %31, label %.loopexit33, label %22, !llvm.loop !8

.loopexit:                                        ; preds = %22, %11, %8, %3
  %.0.ph = phi ptr [ @.str.10, %3 ], [ @.str.11, %8 ], [ @.str.11, %11 ], [ @.str.11, %22 ]
  %32 = tail call ptr @__errno_location() #14
  store i32 8, ptr %32, align 4
  br label %.loopexit33

.loopexit33:                                      ; preds = %23, %.loopexit
  %.032 = phi ptr [ %.0.ph, %.loopexit ], [ null, %23 ]
  %33 = tail call i32 @close(i32 noundef %2) #17
  tail call void @llvm.stackrestore.p0(ptr %4)
  br label %34

34:                                               ; preds = %.loopexit33, %1
  %.1 = phi ptr [ %.032, %.loopexit33 ], [ @.str.10, %1 ]
  ret ptr %.1
}